target datalayout = "e-m:e-p270:32:32-p271:32:32-p272:64:64-i64:64-i128:128-f80:128-n8:16:32:64-S128"
target triple = "x86_64-pc-linux-gnu"

%class.NamedCounter = type { ptr, i32, i32, ptr }

@_ZN11OptoRuntime15_named_countersE = hidden global ptr null, align 8
@tty = external global ptr, align 8
@.str.25 = private unnamed_addr constant [18 x i8] c"dynamic locks: %d\00", align 1
@.str.26 = private unnamed_addr constant [28 x i8] c"eliminated locks: %d (%d%%)\00", align 1

; Function Attrs: mustprogress nounwind uwtable
define linkonce_odr hidden noundef ptr @_ZNK12NamedCounter4nextEv(ptr noundef nonnull align 8 dereferenceable(24) %0) #1 comdat align 2 {
  %2 = alloca ptr, align 8
  store ptr %0, ptr %2, align 8
  %3 = load ptr, ptr %2, align 8
  %4 = getelementptr inbounds %class.NamedCounter, ptr %3, i32 0, i32 3
  %5 = load ptr, ptr %4, align 8
  ret ptr %5
}

; Function Attrs: mustprogress nounwind uwtable
define linkonce_odr hidden noundef i32 @_ZNK12NamedCounter5countEv(ptr noundef nonnull align 8 dereferenceable(24) %0) #1 comdat align 2 {
  %2 = alloca ptr, align 8
  store ptr %0, ptr %2, align 8
  %3 = load ptr, ptr %2, align 8
  %4 = getelementptr inbounds %class.NamedCounter, ptr %3, i32 0, i32 1
  %5 = load i32, ptr %4, align 8
  ret i32 %5
}

; Function Attrs: mustprogress nounwind uwtable
define linkonce_odr hidden noundef i32 @_ZNK12NamedCounter3tagEv(ptr noundef nonnull align 8 dereferenceable(24) %0) #1 comdat align 2 {
  %2 = alloca ptr, align 8
  store ptr %0, ptr %2, align 8
  %3 = load ptr, ptr %2, align 8
  %4 = getelementptr inbounds %class.NamedCounter, ptr %3, i32 0, i32 2
  %5 = load i32, ptr %4, align 4
  ret i32 %5
}

; Function Attrs: mustprogress nounwind uwtable
define hidden void @_ZN11OptoRuntime20print_named_countersEv() #1 align 2 {
  %1 = alloca i32, align 4
  %2 = alloca i32, align 4
  %3 = alloca ptr, align 8
  %4 = alloca i32, align 4
  %5 = alloca i8, align 1
  store i32 0, ptr %1, align 4
  store i32 0, ptr %2, align 4
  %6 = load volatile ptr, ptr @_ZN11OptoRuntime15_named_countersE, align 8
  store ptr %6, ptr %3, align 8
  br label %7

7:                                                ; preds = %39, %0
  %8 = load ptr, ptr %3, align 8
  %9 = icmp ne ptr %8, null
  br i1 %9, label %10, label %42

10:                                               ; preds = %7
  %11 = load ptr, ptr %3, align 8
  %12 = call noundef i32 @_ZNK12NamedCounter3tagEv(ptr noundef nonnull align 8 dereferenceable(24) %11)
  %13 = icmp eq i32 %12, 1
  br i1 %13, label %18, label %14

14:                                               ; preds = %10
  %15 = load ptr, ptr %3, align 8
  %16 = call noundef i32 @_ZNK12NamedCounter3tagEv(ptr noundef nonnull align 8 dereferenceable(24) %15)
  %17 = icmp eq i32 %16, 2
  br i1 %17, label %18, label %39

18:                                               ; preds = %14, %10
  %19 = load ptr, ptr %3, align 8
  %20 = call noundef i32 @_ZNK12NamedCounter5countEv(ptr noundef nonnull align 8 dereferenceable(24) %19)
  store i32 %20, ptr %4, align 4
  %21 = load i32, ptr %4, align 4
  %22 = icmp sgt i32 %21, 0
  br i1 %22, label %23, label %38

23:                                               ; preds = %18
  %24 = load ptr, ptr %3, align 8
  %25 = call noundef i32 @_ZNK12NamedCounter3tagEv(ptr noundef nonnull align 8 dereferenceable(24) %24)
  %26 = icmp eq i32 %25, 2
  %27 = zext i1 %26 to i8
  store i8 %27, ptr %5, align 1
  %28 = load i32, ptr %4, align 4
  %29 = load i32, ptr %1, align 4
  %30 = add nsw i32 %29, %28
  store i32 %30, ptr %1, align 4
  %31 = load i8, ptr %5, align 1
  %32 = trunc i8 %31 to i1
  br i1 %32, label %33, label %37

33:                                               ; preds = %23
  %34 = load i32, ptr %4, align 4
  %35 = load i32, ptr %2, align 4
  %36 = add nsw i32 %35, %34
  store i32 %36, ptr %2, align 4
  br label %37

37:                                               ; preds = %33, %23
  br label %38

38:                                               ; preds = %37, %18
  br label %39

39:                                               ; preds = %38, %14
  %40 = load ptr, ptr %3, align 8
  %41 = call noundef ptr @_ZNK12NamedCounter4nextEv(ptr noundef nonnull align 8 dereferenceable(24) %40)
  store ptr %41, ptr %3, align 8
  br label %7, !llvm.loop !10

42:                                               ; preds = %7
  %43 = load i32, ptr %1, align 4
  %44 = icmp sgt i32 %43, 0
  br i1 %44, label %45, label %61

45:                                               ; preds = %42
  %46 = load ptr, ptr @tty, align 8
  %47 = load i32, ptr %1, align 4
  call void (ptr, ptr, ...) @_ZN12outputStream8print_crEPKcz(ptr noundef nonnull align 8 dereferenceable(56) %46, ptr noundef @.str.25, i32 noundef %47)
  %48 = load i32, ptr %2, align 4
  %49 = icmp ne i32 %48, 0
  br i1 %49, label %50, label %60

50:                                               ; preds = %45
  %51 = load ptr, ptr @tty, align 8
  %52 = load i32, ptr %2, align 4
  %53 = load i32, ptr %2, align 4
  %54 = sitofp i32 %53 to double
  %55 = fmul double %54, 1.000000e+02
  %56 = load i32, ptr %1, align 4
  %57 = sitofp i32 %56 to double
  %58 = fdiv double %55, %57
  %59 = fptosi double %58 to i32
  call void (ptr, ptr, ...) @_ZN12outputStream8print_crEPKcz(ptr noundef nonnull align 8 dereferenceable(56) %51, ptr noundef @.str.26, i32 noundef %52, i32 noundef %59)
  br label %60

60:                                               ; preds = %50, %45
  br label %61

61:                                               ; preds = %60, %42
  ret void
}