; Function Attrs: mustprogress nounwind uwtable
define hidden void @_ZN11OptoRuntime20print_named_countersEv() local_unnamed_addr #0 align 2 {
  %1 = load volatile ptr, ptr @_ZN11OptoRuntime15_named_countersE, align 8
  %.not22 = icmp eq ptr %1, null
  br i1 %.not22, label %._crit_edge.thread, label %.lr.ph

.lr.ph:                                           ; preds = %0, %12
  %.025 = phi i32 [ %.1, %12 ], [ 0, %0 ]
  %.01724 = phi i32 [ %.118, %12 ], [ 0, %0 ]
  %.01923 = phi ptr [ %14, %12 ], [ %1, %0 ]
  %2 = getelementptr inbounds i8, ptr %.01923, i64 12
  %3 = load i32, ptr %2, align 4
  %.off = add i32 %3, -1
  %switch = icmp ult i32 %.off, 2
  br i1 %switch, label %4, label %12

4:                                                ; preds = %.lr.ph
  %5 = getelementptr inbounds i8, ptr %.01923, i64 8
  %6 = load i32, ptr %5, align 8
  %7 = icmp sgt i32 %6, 0
  br i1 %7, label %8, label %12

8:                                                ; preds = %4
  %9 = icmp eq i32 %3, 2
  %10 = add nuw nsw i32 %6, %.025
  %11 = select i1 %9, i32 %6, i32 0
  %spec.select = add nuw nsw i32 %11, %.01724
  br label %12

12:                                               ; preds = %.lr.ph, %8, %4
  %.118 = phi i32 [ %.01724, %4 ], [ %spec.select, %8 ], [ %.01724, %.lr.ph ]
  %.1 = phi i32 [ %.025, %4 ], [ %10, %8 ], [ %.025, %.lr.ph ]
  %13 = getelementptr inbounds i8, ptr %.01923, i64 16
  %14 = load ptr, ptr %13, align 8
  %.not = icmp eq ptr %14, null
  br i1 %.not, label %._crit_edge, label %.lr.ph, !llvm.loop !35

._crit_edge:                                      ; preds = %12
  %15 = icmp sgt i32 %.1, 0
  br i1 %15, label %16, label %._crit_edge.thread

16:                                               ; preds = %._crit_edge
  %17 = load ptr, ptr @tty, align 8
  tail call void (ptr, ptr, ...) @_ZN12outputStream8print_crEPKcz(ptr noundef nonnull align 8 dereferenceable(56) %17, ptr noundef nonnull @.str.25, i32 noundef %.1) #12
  %.not21 = icmp eq i32 %.118, 0
  br i1 %.not21, label %._crit_edge.thread, label %18

18:                                               ; preds = %16
  %19 = load ptr, ptr @tty, align 8
  %20 = uitofp nneg i32 %.118 to double
  %21 = fmul double %20, 1.000000e+02
  %22 = uitofp nneg i32 %.1 to double
  %23 = fdiv double %21, %22
  %24 = fptosi double %23 to i32
  tail call void (ptr, ptr, ...) @_ZN12outputStream8print_crEPKcz(ptr noundef nonnull align 8 dereferenceable(56) %19, ptr noundef nonnull @.str.26, i32 noundef %.118, i32 noundef %24) #12
  br label %._crit_edge.thread

._crit_edge.thread:                               ; preds = %0, %16, %18, %._crit_edge
  ret void
}